target datalayout = "e-m:e-p270:32:32-p271:32:32-p272:64:64-i64:64-i128:128-f80:128-n8:16:32:64-S128"
target triple = "x86_64-pc-linux-gnu"

; Function Attrs: nounwind uwtable
define void @Abc_ResSwapRandom(ptr noundef %0, ptr noundef %1, i32 noundef %2, ptr noundef %3, i32 noundef %4, i32 noundef %5) #0 {
  %7 = alloca ptr, align 8
  %8 = alloca ptr, align 8
  %9 = alloca i32, align 4
  %10 = alloca ptr, align 8
  %11 = alloca i32, align 4
  %12 = alloca i32, align 4
  %13 = alloca i32, align 4
  %14 = alloca i32, align 4
  %15 = alloca i32, align 4
  %16 = alloca i32, align 4
  %17 = alloca i32, align 4
  store ptr %0, ptr %7, align 8
  store ptr %1, ptr %8, align 8
  store i32 %2, ptr %9, align 4
  store ptr %3, ptr %10, align 8
  store i32 %4, ptr %11, align 4
  store i32 %5, ptr %12, align 4
  store i32 0, ptr %15, align 4
  br label %18

18:                                               ; preds = %79, %78, %6
  %19 = load i32, ptr %15, align 4
  %20 = load i32, ptr %12, align 4
  %21 = icmp slt i32 %19, %20
  br i1 %21, label %22, label %104

22:                                               ; preds = %18
  store i32 0, ptr %14, align 4
  store i32 0, ptr %13, align 4
  br label %23

23:                                               ; preds = %27, %22
  %24 = load i32, ptr %13, align 4
  %25 = load i32, ptr %14, align 4
  %26 = icmp eq i32 %24, %25
  br i1 %26, label %27, label %34

27:                                               ; preds = %23
  %28 = call i32 @rand() #9
  %29 = load i32, ptr %9, align 4
  %30 = srem i32 %28, %29
  store i32 %30, ptr %13, align 4
  %31 = call i32 @rand() #9
  %32 = load i32, ptr %9, align 4
  %33 = srem i32 %31, %32
  store i32 %33, ptr %14, align 4
  br label %23, !llvm.loop !30

34:                                               ; preds = %23
  store i32 0, ptr %16, align 4
  br label %35

35:                                               ; preds = %51, %34
  %36 = load i32, ptr %16, align 4
  %37 = load i32, ptr %11, align 4
  %38 = icmp slt i32 %36, %37
  br i1 %38, label %39, label %54

39:                                               ; preds = %35
  %40 = load ptr, ptr %10, align 8
  %41 = load i32, ptr %16, align 4
  %42 = sext i32 %41 to i64
  %43 = getelementptr inbounds i32, ptr %40, i64 %42
  %44 = load i32, ptr %43, align 4
  %45 = load i32, ptr %13, align 4
  %46 = shl i32 1, %45
  %47 = and i32 %44, %46
  %48 = icmp ne i32 %47, 0
  br i1 %48, label %49, label %50

49:                                               ; preds = %39
  br label %54

50:                                               ; preds = %39
  br label %51

51:                                               ; preds = %50
  %52 = load i32, ptr %16, align 4
  %53 = add nsw i32 %52, 1
  store i32 %53, ptr %16, align 4
  br label %35, !llvm.loop !31

54:                                               ; preds = %49, %35
  store i32 0, ptr %17, align 4
  br label %55

55:                                               ; preds = %71, %54
  %56 = load i32, ptr %17, align 4
  %57 = load i32, ptr %11, align 4
  %58 = icmp slt i32 %56, %57
  br i1 %58, label %59, label %74

59:                                               ; preds = %55
  %60 = load ptr, ptr %10, align 8
  %61 = load i32, ptr %17, align 4
  %62 = sext i32 %61 to i64
  %63 = getelementptr inbounds i32, ptr %60, i64 %62
  %64 = load i32, ptr %63, align 4
  %65 = load i32, ptr %14, align 4
  %66 = shl i32 1, %65
  %67 = and i32 %64, %66
  %68 = icmp ne i32 %67, 0
  br i1 %68, label %69, label %70

69:                                               ; preds = %59
  br label %74

70:                                               ; preds = %59
  br label %71

71:                                               ; preds = %70
  %72 = load i32, ptr %17, align 4
  %73 = add nsw i32 %72, 1
  store i32 %73, ptr %17, align 4
  br label %55, !llvm.loop !32

74:                                               ; preds = %69, %55
  %75 = load i32, ptr %16, align 4
  %76 = load i32, ptr %17, align 4
  %77 = icmp eq i32 %75, %76
  br i1 %77, label %78, label %79

78:                                               ; preds = %74
  br label %18, !llvm.loop !33

79:                                               ; preds = %74
  %80 = load i32, ptr %13, align 4
  %81 = shl i32 1, %80
  %82 = load i32, ptr %14, align 4
  %83 = shl i32 1, %82
  %84 = or i32 %81, %83
  %85 = load ptr, ptr %10, align 8
  %86 = load i32, ptr %16, align 4
  %87 = sext i32 %86 to i64
  %88 = getelementptr inbounds i32, ptr %85, i64 %87
  %89 = load i32, ptr %88, align 4
  %90 = xor i32 %89, %84
  store i32 %90, ptr %88, align 4
  %91 = load i32, ptr %13, align 4
  %92 = shl i32 1, %91
  %93 = load i32, ptr %14, align 4
  %94 = shl i32 1, %93
  %95 = or i32 %92, %94
  %96 = load ptr, ptr %10, align 8
  %97 = load i32, ptr %17, align 4
  %98 = sext i32 %97 to i64
  %99 = getelementptr inbounds i32, ptr %96, i64 %98
  %100 = load i32, ptr %99, align 4
  %101 = xor i32 %100, %95
  store i32 %101, ptr %99, align 4
  %102 = load i32, ptr %15, align 4
  %103 = add nsw i32 %102, 1
  store i32 %103, ptr %15, align 4
  br label %18, !llvm.loop !33

104:                                              ; preds = %18
  ret void
}