; Function Attrs: nounwind uwtable
define void @Abc_ResSwapRandom(ptr noundef readnone captures(none) %0, ptr noundef readnone captures(none) %1, i32 noundef %2, ptr noundef captures(none) %3, i32 noundef %4, i32 noundef %5) local_unnamed_addr #0 {
  %7 = icmp sgt i32 %5, 0
  br i1 %7, label %.outer.split.lr.ph, label %.outer._crit_edge

.outer.split.lr.ph:                               ; preds = %6
  %8 = icmp sgt i32 %4, 0
  br i1 %8, label %.outer.split.us.us.preheader, label %.preheader33

.outer.split.us.us.preheader:                     ; preds = %.outer.split.lr.ph
  %wide.trip.count = zext nneg i32 %4 to i64
  br label %.outer.split.us.us

.outer.split.us.us:                               ; preds = %.outer.split.us.us.preheader, %.split.us.us.split.us.us
  %.029.ph67.us.us = phi i32 [ %38, %.split.us.us.split.us.us ], [ 0, %.outer.split.us.us.preheader ]
  br label %.preheader33.us.us.us.us

9:                                                ; preds = %.preheader.us.us.us.us, %22
  %indvars.iv = phi i64 [ 0, %.preheader.us.us.us.us ], [ %indvars.iv.next, %22 ]
  %10 = getelementptr inbounds nuw i32, ptr %3, i64 %indvars.iv
  %11 = load i32, ptr %10, align 4
  %12 = and i32 %11, %28
  %.not.us.us.us.us = icmp eq i32 %12, 0
  br i1 %.not.us.us.us.us, label %22, label %.lr.ph39.us.us.us.us.split.loop.exit84

.lr.ph39.us.us.us.us.split.loop.exit84:           ; preds = %9
  %13 = trunc nuw nsw i64 %indvars.iv to i32
  br label %.lr.ph39.us.us.us.us

.lr.ph39.us.us.us.us:                             ; preds = %22, %.lr.ph39.us.us.us.us.split.loop.exit84
  %.028.lcssa.us.us.us.us = phi i32 [ %13, %.lr.ph39.us.us.us.us.split.loop.exit84 ], [ %4, %22 ]
  %14 = shl nuw i32 1, %26
  br label %15

15:                                               ; preds = %21, %.lr.ph39.us.us.us.us
  %indvars.iv75 = phi i64 [ %indvars.iv.next76, %21 ], [ 0, %.lr.ph39.us.us.us.us ]
  %16 = getelementptr inbounds nuw i32, ptr %3, i64 %indvars.iv75
  %17 = load i32, ptr %16, align 4
  %18 = and i32 %17, %14
  %.not32.us.us.us.us = icmp eq i32 %18, 0
  br i1 %.not32.us.us.us.us, label %21, label %._crit_edge40.us.us.us.us.split.loop.exit86

._crit_edge40.us.us.us.us.split.loop.exit86:      ; preds = %15
  %19 = trunc nuw nsw i64 %indvars.iv75 to i32
  br label %._crit_edge40.us.us.us.us

._crit_edge40.us.us.us.us:                        ; preds = %21, %._crit_edge40.us.us.us.us.split.loop.exit86
  %.0.lcssa.us.us.us.us = phi i32 [ %19, %._crit_edge40.us.us.us.us.split.loop.exit86 ], [ %4, %21 ]
  %20 = icmp eq i32 %.028.lcssa.us.us.us.us, %.0.lcssa.us.us.us.us
  br i1 %20, label %.preheader33.us.us.us.us.backedge, label %.split.us.us.split.us.us

21:                                               ; preds = %15
  %indvars.iv.next76 = add nuw nsw i64 %indvars.iv75, 1
  %exitcond79.not = icmp eq i64 %indvars.iv.next76, %wide.trip.count
  br i1 %exitcond79.not, label %._crit_edge40.us.us.us.us, label %15, !llvm.loop !26

22:                                               ; preds = %9
  %indvars.iv.next = add nuw nsw i64 %indvars.iv, 1
  %exitcond.not = icmp eq i64 %indvars.iv.next, %wide.trip.count
  br i1 %exitcond.not, label %.lr.ph39.us.us.us.us, label %9, !llvm.loop !27

.preheader33.us.us.us.us:                         ; preds = %.preheader33.us.us.us.us.backedge, %.outer.split.us.us
  %23 = tail call i32 @rand() #18
  %24 = srem i32 %23, %2
  %25 = tail call i32 @rand() #18
  %26 = srem i32 %25, %2
  %27 = icmp eq i32 %24, %26
  br i1 %27, label %.preheader33.us.us.us.us.backedge, label %.preheader.us.us.us.us

.preheader33.us.us.us.us.backedge:                ; preds = %.preheader33.us.us.us.us, %._crit_edge40.us.us.us.us
  br label %.preheader33.us.us.us.us, !llvm.loop !28

.preheader.us.us.us.us:                           ; preds = %.preheader33.us.us.us.us
  %28 = shl nuw i32 1, %24
  br label %9

.split.us.us.split.us.us:                         ; preds = %._crit_edge40.us.us.us.us
  %29 = or i32 %14, %28
  %30 = zext nneg i32 %.028.lcssa.us.us.us.us to i64
  %31 = getelementptr inbounds nuw i32, ptr %3, i64 %30
  %32 = load i32, ptr %31, align 4
  %33 = xor i32 %32, %29
  store i32 %33, ptr %31, align 4
  %34 = zext nneg i32 %.0.lcssa.us.us.us.us to i64
  %35 = getelementptr inbounds nuw i32, ptr %3, i64 %34
  %36 = load i32, ptr %35, align 4
  %37 = xor i32 %36, %29
  store i32 %37, ptr %35, align 4
  %38 = add nuw nsw i32 %.029.ph67.us.us, 1
  %exitcond80.not = icmp eq i32 %38, %5
  br i1 %exitcond80.not, label %.outer._crit_edge, label %.outer.split.us.us, !llvm.loop !28

.preheader33:                                     ; preds = %.outer.split.lr.ph, %.preheader33
  %39 = tail call i32 @rand() #18
  %40 = tail call i32 @rand() #18
  br label %.preheader33, !llvm.loop !29

.outer._crit_edge:                                ; preds = %.split.us.us.split.us.us, %6
  ret void
}